; Function Attrs: mustprogress uwtable
define hidden void @_ZN2pb6solver10pop_reinitEv(ptr noundef nonnull align 8 dereferenceable(1049) %this) unnamed_addr #3 align 2 {
entry:
  %m_constraint_to_reinit = getelementptr inbounds i8, ptr %this, i64 760
  %0 = load ptr, ptr %m_constraint_to_reinit, align 8
  %cmp.i16 = icmp eq ptr %0, null
  br i1 %cmp.i16, label %_ZN6vectorIPN2pb10constraintELb0EjE6shrinkEj.exit, label %_ZNK6vectorIPN2pb10constraintELb0EjE4sizeEv.exit.thread.lr.ph

_ZNK6vectorIPN2pb10constraintELb0EjE4sizeEv.exit.thread.lr.ph: ; preds = %entry
  %m_constraint_to_reinit_last_sz = getelementptr inbounds i8, ptr %this, i64 776
  %1 = load i32, ptr %m_constraint_to_reinit_last_sz, align 8
  %add.ptr.i = getelementptr inbounds i8, ptr %this, i64 80
  %m_solver.i = getelementptr inbounds i8, ptr %this, i64 24
  %2 = zext i32 %1 to i64
  br label %_ZNK6vectorIPN2pb10constraintELb0EjE4sizeEv.exit.thread

_ZNK6vectorIPN2pb10constraintELb0EjE4sizeEv.exit.thread: ; preds = %_ZNK6vectorIPN2pb10constraintELb0EjE4sizeEv.exit.thread.lr.ph, %for.inc
  %indvars.iv = phi i64 [ %2, %_ZNK6vectorIPN2pb10constraintELb0EjE4sizeEv.exit.thread.lr.ph ], [ %indvars.iv.next, %for.inc ]
  %3 = phi ptr [ %0, %_ZNK6vectorIPN2pb10constraintELb0EjE4sizeEv.exit.thread.lr.ph ], [ %12, %for.inc ]
  %sz.018 = phi i32 [ %1, %_ZNK6vectorIPN2pb10constraintELb0EjE4sizeEv.exit.thread.lr.ph ], [ %sz.1, %for.inc ]
  %arrayidx.i = getelementptr inbounds i8, ptr %3, i64 -4
  %4 = load i32, ptr %arrayidx.i, align 4
  %5 = zext i32 %4 to i64
  %cmp13 = icmp ult i64 %indvars.iv, %5
  br i1 %cmp13, label %for.body, label %if.then.i

for.body:                                         ; preds = %_ZNK6vectorIPN2pb10constraintELb0EjE4sizeEv.exit.thread
  %arrayidx.i6 = getelementptr inbounds ptr, ptr %3, i64 %indvars.iv
  %6 = load ptr, ptr %arrayidx.i6, align 8
  %vtable.i = load ptr, ptr %this, align 8
  %vfn.i = getelementptr inbounds i8, ptr %vtable.i, i64 552
  %7 = load ptr, ptr %vfn.i, align 8
  %call.i = tail call noundef zeroext i1 %7(ptr noundef nonnull align 8 dereferenceable(1049) %this)
  br i1 %call.i, label %land.lhs.true, label %_ZN2pb6solver10init_watchERNS_10constraintE.exit

_ZN2pb6solver10init_watchERNS_10constraintE.exit: ; preds = %for.body
  %vtable2.i = load ptr, ptr %6, align 8
  %vfn3.i = getelementptr inbounds i8, ptr %vtable2.i, i64 24
  %8 = load ptr, ptr %vfn3.i, align 8
  %call4.i = tail call noundef zeroext i1 %8(ptr noundef nonnull align 8 dereferenceable(64) %6, ptr noundef nonnull align 8 dereferenceable(8) %add.ptr.i)
  br i1 %call4.i, label %for.inc, label %land.lhs.true

land.lhs.true:                                    ; preds = %for.body, %_ZN2pb6solver10init_watchERNS_10constraintE.exit
  %9 = load ptr, ptr %m_solver.i, align 8
  %m_scope_lvl.i = getelementptr inbounds i8, ptr %9, i64 3756
  %10 = load i32, ptr %m_scope_lvl.i, align 4
  %cmp.i7 = icmp eq i32 %10, 0
  br i1 %cmp.i7, label %for.inc, label %if.then

if.then:                                          ; preds = %land.lhs.true
  %inc = add i32 %sz.018, 1
  %11 = load ptr, ptr %m_constraint_to_reinit, align 8
  %idxprom.i8 = zext i32 %sz.018 to i64
  %arrayidx.i9 = getelementptr inbounds ptr, ptr %11, i64 %idxprom.i8
  store ptr %6, ptr %arrayidx.i9, align 8
  br label %for.inc

for.inc:                                          ; preds = %_ZN2pb6solver10init_watchERNS_10constraintE.exit, %land.lhs.true, %if.then
  %sz.1 = phi i32 [ %sz.018, %_ZN2pb6solver10init_watchERNS_10constraintE.exit ], [ %sz.018, %land.lhs.true ], [ %inc, %if.then ]
  %indvars.iv.next = add nuw nsw i64 %indvars.iv, 1
  %12 = load ptr, ptr %m_constraint_to_reinit, align 8
  %cmp.i = icmp eq ptr %12, null
  br i1 %cmp.i, label %_ZN6vectorIPN2pb10constraintELb0EjE6shrinkEj.exit, label %_ZNK6vectorIPN2pb10constraintELb0EjE4sizeEv.exit.thread, !llvm.loop !106

if.then.i:                                        ; preds = %_ZNK6vectorIPN2pb10constraintELb0EjE4sizeEv.exit.thread
  %arrayidx.i.le = getelementptr inbounds i8, ptr %3, i64 -4
  store i32 %sz.018, ptr %arrayidx.i.le, align 4
  br label %_ZN6vectorIPN2pb10constraintELb0EjE6shrinkEj.exit

_ZN6vectorIPN2pb10constraintELb0EjE6shrinkEj.exit: ; preds = %for.inc, %entry, %if.then.i
  ret void
}